target datalayout = "e-m:e-p270:32:32-p271:32:32-p272:64:64-i64:64-i128:128-f80:128-n8:16:32:64-S128"
target triple = "x86_64-pc-linux-gnu"

%"class.bParse::bDNA" = type { %class.b3AlignedObjectArray, %class.b3AlignedObjectArray.0, %class.b3AlignedObjectArray.2, %class.b3AlignedObjectArray.4, %class.b3AlignedObjectArray.6, %class.b3HashMap, %class.b3HashMap.10, i32, [4 x i8] }
%class.b3AlignedObjectArray = type <{ [4 x i8], i32, i32, [4 x i8], ptr, i8, [7 x i8] }>
%class.b3AlignedObjectArray.0 = type <{ [4 x i8], i32, i32, [4 x i8], ptr, i8, [7 x i8] }>
%class.b3AlignedObjectArray.2 = type <{ [4 x i8], i32, i32, [4 x i8], ptr, i8, [7 x i8] }>
%class.b3AlignedObjectArray.4 = type <{ [4 x i8], i32, i32, [4 x i8], ptr, i8, [7 x i8] }>
%class.b3AlignedObjectArray.6 = type <{ [4 x i8], i32, i32, [4 x i8], ptr, i8, [7 x i8] }>
%class.b3HashMap = type { %class.b3AlignedObjectArray, %class.b3AlignedObjectArray, %class.b3AlignedObjectArray, %class.b3AlignedObjectArray.8 }
%class.b3AlignedObjectArray.8 = type <{ [4 x i8], i32, i32, [4 x i8], ptr, i8, [7 x i8] }>
%class.b3HashMap.10 = type { %class.b3AlignedObjectArray, %class.b3AlignedObjectArray, %class.b3AlignedObjectArray, %class.b3AlignedObjectArray.11 }
%class.b3AlignedObjectArray.11 = type <{ [4 x i8], i32, i32, [4 x i8], ptr, i8, [7 x i8] }>
%"struct.bParse::bNameInfo" = type { ptr, i8, i32, i32 }

; Function Attrs: inlinehint mustprogress nounwind uwtable
define linkonce_odr dso_local noundef nonnull align 8 dereferenceable(24) ptr @_ZN20b3AlignedObjectArrayIN6bParse9bNameInfoEEixEi(ptr noundef nonnull align 8 dereferenceable(25) %0, i32 noundef %1) #2 comdat align 2 {
  %3 = alloca ptr, align 8
  %4 = alloca i32, align 4
  store ptr %0, ptr %3, align 8, !tbaa !38
  store i32 %1, ptr %4, align 4, !tbaa !51
  %5 = load ptr, ptr %3, align 8
  %6 = getelementptr inbounds nuw %class.b3AlignedObjectArray.0, ptr %5, i32 0, i32 4
  %7 = load ptr, ptr %6, align 8, !tbaa !55
  %8 = load i32, ptr %4, align 4, !tbaa !51
  %9 = sext i32 %8 to i64
  %10 = getelementptr inbounds %"struct.bParse::bNameInfo", ptr %7, i64 %9
  ret ptr %10
}

; Function Attrs: inlinehint mustprogress nounwind uwtable
define linkonce_odr dso_local noundef nonnull align 4 dereferenceable(4) ptr @_ZN20b3AlignedObjectArrayIiEixEi(ptr noundef nonnull align 8 dereferenceable(25) %0, i32 noundef %1) #2 comdat align 2 {
  %3 = alloca ptr, align 8
  %4 = alloca i32, align 4
  store ptr %0, ptr %3, align 8, !tbaa !36
  store i32 %1, ptr %4, align 4, !tbaa !51
  %5 = load ptr, ptr %3, align 8
  %6 = getelementptr inbounds nuw %class.b3AlignedObjectArray, ptr %5, i32 0, i32 4
  %7 = load ptr, ptr %6, align 8, !tbaa !77
  %8 = load i32, ptr %4, align 4, !tbaa !51
  %9 = sext i32 %8 to i64
  %10 = getelementptr inbounds i32, ptr %7, i64 %9
  ret ptr %10
}

; Function Attrs: inlinehint mustprogress nounwind uwtable
define linkonce_odr dso_local noundef i32 @_ZNK20b3AlignedObjectArrayIPsE4sizeEv(ptr noundef nonnull align 8 dereferenceable(25) %0) #2 comdat align 2 {
  %2 = alloca ptr, align 8
  store ptr %0, ptr %2, align 8, !tbaa !42
  %3 = load ptr, ptr %2, align 8
  %4 = getelementptr inbounds nuw %class.b3AlignedObjectArray.4, ptr %3, i32 0, i32 1
  %5 = load i32, ptr %4, align 4, !tbaa !76
  ret i32 %5
}

; Function Attrs: inlinehint mustprogress nounwind uwtable
define linkonce_odr dso_local noundef nonnull align 8 dereferenceable(8) ptr @_ZN20b3AlignedObjectArrayIPsEixEi(ptr noundef nonnull align 8 dereferenceable(25) %0, i32 noundef %1) #2 comdat align 2 {
  %3 = alloca ptr, align 8
  %4 = alloca i32, align 4
  store ptr %0, ptr %3, align 8, !tbaa !42
  store i32 %1, ptr %4, align 4, !tbaa !51
  %5 = load ptr, ptr %3, align 8
  %6 = getelementptr inbounds nuw %class.b3AlignedObjectArray.4, ptr %5, i32 0, i32 4
  %7 = load ptr, ptr %6, align 8, !tbaa !59
  %8 = load i32, ptr %4, align 4, !tbaa !51
  %9 = sext i32 %8 to i64
  %10 = getelementptr inbounds ptr, ptr %7, i64 %9
  ret ptr %10
}

; Function Attrs: mustprogress uwtable
define dso_local void @_ZN6bParse4bDNA19initRecurseCmpFlagsEi(ptr noundef nonnull align 8 dereferenceable(420) %0, i32 noundef %1) #0 align 2 {
  %3 = alloca ptr, align 8
  %4 = alloca i32, align 4
  %5 = alloca ptr, align 8
  %6 = alloca i16, align 2
  %7 = alloca i32, align 4
  %8 = alloca i32, align 4
  %9 = alloca ptr, align 8
  %10 = alloca i32, align 4
  %11 = alloca i32, align 4
  store ptr %0, ptr %3, align 8, !tbaa !4
  store i32 %1, ptr %4, align 4, !tbaa !51
  %12 = load ptr, ptr %3, align 8
  call void @llvm.lifetime.start.p0(i64 8, ptr %5) #14
  %13 = getelementptr inbounds nuw %"class.bParse::bDNA", ptr %12, i32 0, i32 3
  %14 = load i32, ptr %4, align 4, !tbaa !51
  %15 = call noundef nonnull align 8 dereferenceable(8) ptr @_ZN20b3AlignedObjectArrayIPsEixEi(ptr noundef nonnull align 8 dereferenceable(25) %13, i32 noundef %14)
  %16 = load ptr, ptr %15, align 8, !tbaa !58
  store ptr %16, ptr %5, align 8, !tbaa !58
  call void @llvm.lifetime.start.p0(i64 2, ptr %6) #14
  %17 = load ptr, ptr %5, align 8, !tbaa !58
  %18 = getelementptr inbounds i16, ptr %17, i64 0
  %19 = load i16, ptr %18, align 2, !tbaa !60
  store i16 %19, ptr %6, align 2, !tbaa !60
  call void @llvm.lifetime.start.p0(i64 4, ptr %7) #14
  store i32 0, ptr %7, align 4, !tbaa !51
  br label %20

20:                                               ; preds = %84, %2
  %21 = load i32, ptr %7, align 4, !tbaa !51
  %22 = getelementptr inbounds nuw %"class.bParse::bDNA", ptr %12, i32 0, i32 3
  %23 = call noundef i32 @_ZNK20b3AlignedObjectArrayIPsE4sizeEv(ptr noundef nonnull align 8 dereferenceable(25) %22)
  %24 = icmp slt i32 %21, %23
  br i1 %24, label %26, label %25

25:                                               ; preds = %20
  store i32 2, ptr %8, align 4
  call void @llvm.lifetime.end.p0(i64 4, ptr %7) #14
  br label %87

26:                                               ; preds = %20
  %27 = load i32, ptr %7, align 4, !tbaa !51
  %28 = load i32, ptr %4, align 4, !tbaa !51
  %29 = icmp ne i32 %27, %28
  br i1 %29, label %30, label %83

30:                                               ; preds = %26
  %31 = getelementptr inbounds nuw %"class.bParse::bDNA", ptr %12, i32 0, i32 0
  %32 = load i32, ptr %7, align 4, !tbaa !51
  %33 = call noundef nonnull align 4 dereferenceable(4) ptr @_ZN20b3AlignedObjectArrayIiEixEi(ptr noundef nonnull align 8 dereferenceable(25) %31, i32 noundef %32)
  %34 = load i32, ptr %33, align 4, !tbaa !51
  %35 = icmp eq i32 %34, 2
  br i1 %35, label %36, label %83

36:                                               ; preds = %30
  call void @llvm.lifetime.start.p0(i64 8, ptr %9) #14
  %37 = getelementptr inbounds nuw %"class.bParse::bDNA", ptr %12, i32 0, i32 3
  %38 = load i32, ptr %7, align 4, !tbaa !51
  %39 = call noundef nonnull align 8 dereferenceable(8) ptr @_ZN20b3AlignedObjectArrayIPsEixEi(ptr noundef nonnull align 8 dereferenceable(25) %37, i32 noundef %38)
  %40 = load ptr, ptr %39, align 8, !tbaa !58
  store ptr %40, ptr %9, align 8, !tbaa !58
  call void @llvm.lifetime.start.p0(i64 4, ptr %10) #14
  %41 = load ptr, ptr %9, align 8, !tbaa !58
  %42 = getelementptr inbounds i16, ptr %41, i64 1
  %43 = load i16, ptr %42, align 2, !tbaa !60
  %44 = sext i16 %43 to i32
  store i32 %44, ptr %10, align 4, !tbaa !51
  %45 = load ptr, ptr %9, align 8, !tbaa !58
  %46 = getelementptr inbounds i16, ptr %45, i64 2
  store ptr %46, ptr %9, align 8, !tbaa !58
  call void @llvm.lifetime.start.p0(i64 4, ptr %11) #14
  store i32 0, ptr %11, align 4, !tbaa !51
  br label %47

47:                                               ; preds = %77, %36
  %48 = load i32, ptr %11, align 4, !tbaa !51
  %49 = load i32, ptr %10, align 4, !tbaa !51
  %50 = icmp slt i32 %48, %49
  br i1 %50, label %52, label %51

51:                                               ; preds = %47
  store i32 5, ptr %8, align 4
  call void @llvm.lifetime.end.p0(i64 4, ptr %11) #14
  br label %82

52:                                               ; preds = %47
  %53 = load ptr, ptr %9, align 8, !tbaa !58
  %54 = getelementptr inbounds i16, ptr %53, i64 0
  %55 = load i16, ptr %54, align 2, !tbaa !60
  %56 = sext i16 %55 to i32
  %57 = load i16, ptr %6, align 2, !tbaa !60
  %58 = sext i16 %57 to i32
  %59 = icmp eq i32 %56, %58
  br i1 %59, label %60, label %76

60:                                               ; preds = %52
  %61 = getelementptr inbounds nuw %"class.bParse::bDNA", ptr %12, i32 0, i32 1
  %62 = load ptr, ptr %9, align 8, !tbaa !58
  %63 = getelementptr inbounds i16, ptr %62, i64 1
  %64 = load i16, ptr %63, align 2, !tbaa !60
  %65 = sext i16 %64 to i32
  %66 = call noundef nonnull align 8 dereferenceable(24) ptr @_ZN20b3AlignedObjectArrayIN6bParse9bNameInfoEEixEi(ptr noundef nonnull align 8 dereferenceable(25) %61, i32 noundef %65)
  %67 = getelementptr inbounds nuw %"struct.bParse::bNameInfo", ptr %66, i32 0, i32 1
  %68 = load i8, ptr %67, align 8, !tbaa !78, !range !79, !noundef !80
  %69 = trunc i8 %68 to i1
  br i1 %69, label %70, label %75

70:                                               ; preds = %60
  %71 = getelementptr inbounds nuw %"class.bParse::bDNA", ptr %12, i32 0, i32 0
  %72 = load i32, ptr %7, align 4, !tbaa !51
  %73 = call noundef nonnull align 4 dereferenceable(4) ptr @_ZN20b3AlignedObjectArrayIiEixEi(ptr noundef nonnull align 8 dereferenceable(25) %71, i32 noundef %72)
  store i32 1, ptr %73, align 4, !tbaa !51
  %74 = load i32, ptr %7, align 4, !tbaa !51
  call void @_ZN6bParse4bDNA19initRecurseCmpFlagsEi(ptr noundef nonnull align 8 dereferenceable(420) %12, i32 noundef %74)
  br label %75

75:                                               ; preds = %70, %60
  br label %76

76:                                               ; preds = %75, %52
  br label %77

77:                                               ; preds = %76
  %78 = load i32, ptr %11, align 4, !tbaa !51
  %79 = add nsw i32 %78, 1
  store i32 %79, ptr %11, align 4, !tbaa !51
  %80 = load ptr, ptr %9, align 8, !tbaa !58
  %81 = getelementptr inbounds i16, ptr %80, i64 2
  store ptr %81, ptr %9, align 8, !tbaa !58
  br label %47, !llvm.loop !81

82:                                               ; preds = %51
  call void @llvm.lifetime.end.p0(i64 4, ptr %10) #14
  call void @llvm.lifetime.end.p0(i64 8, ptr %9) #14
  br label %83

83:                                               ; preds = %82, %30, %26
  br label %84

84:                                               ; preds = %83
  %85 = load i32, ptr %7, align 4, !tbaa !51
  %86 = add nsw i32 %85, 1
  store i32 %86, ptr %7, align 4, !tbaa !51
  br label %20, !llvm.loop !82

87:                                               ; preds = %25
  call void @llvm.lifetime.end.p0(i64 2, ptr %6) #14
  call void @llvm.lifetime.end.p0(i64 8, ptr %5) #14
  ret void
}