; Function Attrs: mustprogress nofree nosync nounwind memory(readwrite, inaccessiblemem: none) uwtable
define dso_local void @_ZN6bParse4bDNA19initRecurseCmpFlagsEi(ptr noundef nonnull readonly align 8 captures(none) dereferenceable(420) %0, i32 noundef %1) local_unnamed_addr #7 align 2 {
  %3 = getelementptr inbounds nuw i8, ptr %0, i64 112
  %4 = load ptr, ptr %3, align 8, !tbaa !34
  %5 = sext i32 %1 to i64
  %6 = getelementptr inbounds ptr, ptr %4, i64 %5
  %7 = load ptr, ptr %6, align 8, !tbaa !76
  %8 = load i16, ptr %7, align 2, !tbaa !77
  %9 = getelementptr inbounds nuw i8, ptr %0, i64 100
  %10 = load i32, ptr %9, align 4, !tbaa !35
  %11 = icmp sgt i32 %10, 0
  br i1 %11, label %.lr.ph27, label %._crit_edge

.lr.ph27:                                         ; preds = %2
  %12 = getelementptr inbounds nuw i8, ptr %0, i64 16
  %13 = getelementptr inbounds nuw i8, ptr %0, i64 48
  %14 = zext i32 %1 to i64
  br label %15

._crit_edge:                                      ; preds = %.loopexit, %2
  ret void

15:                                               ; preds = %.lr.ph27, %.loopexit
  %16 = phi i32 [ %10, %.lr.ph27 ], [ %46, %.loopexit ]
  %indvars.iv = phi i64 [ 0, %.lr.ph27 ], [ %indvars.iv.next, %.loopexit ]
  %.not = icmp eq i64 %indvars.iv, %14
  br i1 %.not, label %.loopexit, label %17

17:                                               ; preds = %15
  %18 = load ptr, ptr %12, align 8, !tbaa !13
  %19 = getelementptr inbounds nuw i32, ptr %18, i64 %indvars.iv
  %20 = load i32, ptr %19, align 4, !tbaa !79
  %21 = icmp eq i32 %20, 2
  br i1 %21, label %22, label %.loopexit

22:                                               ; preds = %17
  %23 = load ptr, ptr %3, align 8, !tbaa !34
  %24 = getelementptr inbounds nuw ptr, ptr %23, i64 %indvars.iv
  %25 = load ptr, ptr %24, align 8, !tbaa !76
  %26 = getelementptr inbounds nuw i8, ptr %25, i64 2
  %27 = load i16, ptr %26, align 2, !tbaa !77
  %28 = sext i16 %27 to i32
  %29 = icmp sgt i16 %27, 0
  br i1 %29, label %.lr.ph.preheader, label %.loopexit

.lr.ph.preheader:                                 ; preds = %22
  %30 = trunc nuw nsw i64 %indvars.iv to i32
  br label %.lr.ph

.lr.ph:                                           ; preds = %.lr.ph.preheader, %44
  %.023 = phi i32 [ %45, %44 ], [ 0, %.lr.ph.preheader ]
  %.pn22 = phi ptr [ %.02024, %44 ], [ %25, %.lr.ph.preheader ]
  %.02024 = getelementptr inbounds nuw i8, ptr %.pn22, i64 4
  %31 = load i16, ptr %.02024, align 2, !tbaa !77
  %32 = icmp eq i16 %31, %8
  br i1 %32, label %33, label %44

33:                                               ; preds = %.lr.ph
  %34 = getelementptr inbounds nuw i8, ptr %.pn22, i64 6
  %35 = load i16, ptr %34, align 2, !tbaa !77
  %36 = load ptr, ptr %13, align 8, !tbaa !20
  %37 = sext i16 %35 to i64
  %38 = getelementptr inbounds %"struct.bParse::bNameInfo", ptr %36, i64 %37, i32 1
  %39 = load i8, ptr %38, align 8, !tbaa !89, !range !62, !noundef !63
  %40 = trunc nuw i8 %39 to i1
  br i1 %40, label %41, label %44

41:                                               ; preds = %33
  %42 = load ptr, ptr %12, align 8, !tbaa !13
  %43 = getelementptr inbounds nuw i32, ptr %42, i64 %indvars.iv
  store i32 1, ptr %43, align 4, !tbaa !79
  tail call void @_ZN6bParse4bDNA19initRecurseCmpFlagsEi(ptr noundef nonnull align 8 dereferenceable(420) %0, i32 noundef %30)
  br label %44

44:                                               ; preds = %.lr.ph, %41, %33
  %45 = add nuw nsw i32 %.023, 1
  %exitcond.not = icmp eq i32 %45, %28
  br i1 %exitcond.not, label %.loopexit.loopexit, label %.lr.ph, !llvm.loop !90

.loopexit.loopexit:                               ; preds = %44
  %.pre = load i32, ptr %9, align 4, !tbaa !35
  br label %.loopexit

.loopexit:                                        ; preds = %.loopexit.loopexit, %22, %15, %17
  %46 = phi i32 [ %.pre, %.loopexit.loopexit ], [ %16, %22 ], [ %16, %15 ], [ %16, %17 ]
  %indvars.iv.next = add nuw nsw i64 %indvars.iv, 1
  %47 = sext i32 %46 to i64
  %48 = icmp slt i64 %indvars.iv.next, %47
  br i1 %48, label %15, label %._crit_edge, !llvm.loop !91
}